; Function Attrs: null_pointer_is_valid sspstrong uwtable
define internal range(i32 -268435456, 268435456) i32 @dissect_h225_H323UserInformation(ptr noundef %0, ptr noundef %1, ptr noundef %2, ptr readnone captures(none) %3) #0 {
  %5 = alloca %struct._asn1_ctx_t, align 8
  %6 = getelementptr i8, ptr %1, i64 408
  %.val = load ptr, ptr %6, align 8
  %7 = tail call noalias dereferenceable_or_null(248) ptr @wmem_alloc0(ptr noundef %.val, i64 noundef 248) #12
  %8 = getelementptr inbounds nuw i8, ptr %7, i64 4
  store i32 13, ptr %8, align 4
  %9 = getelementptr inbounds nuw i8, ptr %7, i64 8
  store i32 -1, ptr %9, align 8
  %10 = getelementptr inbounds nuw i8, ptr %7, i64 12
  store i32 -1, ptr %10, align 4
  store i32 1, ptr %7, align 8
  %11 = load ptr, ptr %6, align 8
  %12 = load i32, ptr @proto_h225, align 4
  tail call void @p_add_proto_data(ptr noundef %11, ptr noundef %1, i32 noundef %12, i32 noundef 0, ptr noundef %7)
  tail call void @register_frame_end_routine(ptr noundef %1, ptr noundef nonnull @h225_frame_end)
  %13 = load ptr, ptr %6, align 8
  %14 = tail call ptr @next_tvb_list_new(ptr noundef %13)
  store ptr %14, ptr @h245_list, align 8
  %15 = load ptr, ptr %6, align 8
  %16 = tail call ptr @next_tvb_list_new(ptr noundef %15)
  store ptr %16, ptr @tp_list, align 8
  %17 = getelementptr inbounds nuw i8, ptr %1, i64 8
  %18 = load ptr, ptr %17, align 8
  tail call void @col_set_str(ptr noundef %18, i32 noundef 35, ptr noundef nonnull @.str.1586)
  %19 = load ptr, ptr %17, align 8
  tail call void @col_clear(ptr noundef %19, i32 noundef 25)
  %20 = load i32, ptr @proto_h225, align 4
  %21 = tail call ptr (ptr, i32, ptr, i32, i32, ptr, ...) @proto_tree_add_protocol_format(ptr noundef %2, i32 noundef %20, ptr noundef %0, i32 noundef 0, i32 noundef -1, ptr noundef nonnull @.str.1748)
  %22 = load i32, ptr @ett_h225, align 4
  %23 = tail call ptr @proto_item_add_subtree(ptr noundef %21, i32 noundef %22)
  call void @llvm.lifetime.start.p0(i64 208, ptr nonnull %5) #11
  call void @asn1_ctx_init(ptr noundef nonnull %5, i32 noundef 1, i1 noundef zeroext true, ptr noundef %1)
  %24 = load i32, ptr @hf_h225_H323_UserInformation_PDU, align 4
  %25 = load i32, ptr @ett_h225_H323_UserInformation, align 4
  %26 = call i32 @dissect_per_sequence(ptr noundef %0, i32 noundef 0, ptr noundef nonnull %5, ptr noundef %23, i32 noundef %24, i32 noundef %25, ptr noundef nonnull @H323_UserInformation_sequence)
  call void @llvm.lifetime.end.p0(i64 208, ptr nonnull %5) #11
  %27 = load ptr, ptr @h245_list, align 8
  %28 = getelementptr inbounds nuw i8, ptr %27, i64 24
  %29 = load i32, ptr %28, align 8
  %.not = icmp eq i32 %29, 0
  br i1 %.not, label %33, label %30

30:                                               ; preds = %4
  %31 = load ptr, ptr %17, align 8
  call void @col_append_str(ptr noundef %31, i32 noundef 35, ptr noundef nonnull @.str.1749)
  %32 = load ptr, ptr %17, align 8
  call void @col_set_fence(ptr noundef %32, i32 noundef 35)
  %.pre = load ptr, ptr @h245_list, align 8
  br label %33

33:                                               ; preds = %30, %4
  %34 = phi ptr [ %.pre, %30 ], [ %27, %4 ]
  %35 = add i32 %26, 7
  %36 = ashr i32 %35, 3
  %37 = load ptr, ptr @h245dg_handle, align 8
  %38 = load ptr, ptr @data_handle, align 8
  call void @next_tvb_call(ptr noundef %34, ptr noundef %1, ptr noundef %2, ptr noundef %37, ptr noundef %38)
  %39 = load ptr, ptr @tp_list, align 8
  %40 = load ptr, ptr @data_handle, align 8
  call void @next_tvb_call(ptr noundef %39, ptr noundef %1, ptr noundef %2, ptr noundef null, ptr noundef %40)
  %41 = load i32, ptr @h225_tap, align 4
  call void @tap_queue_packet(i32 noundef %41, ptr noundef %1, ptr noundef %7)
  ret i32 %36
}